(dp0
(I70
I100
tp1
(dp2
(I0
F2.4
tp3
(dp4
S'c'
p5
F0.08087644737679965
sS'b'
p6
F0.6537720567543939
sS'other'
p7
F0.006604694138056616
sss(I600
I1000
tp8
(dp9
(I0
F2.4
tp10
(dp11
g5
F0.1305664410402565
sg6
F0.4445372976776918
sg7
F0.027914417116576686
sss(I200
I300
tp12
(dp13
(I0
F2.4
tp14
(dp15
g5
F0.11474502995642702
sg6
F0.5981163947954606
sg7
F0.011267200166603883
sss(I20
I30
tp16
(dp17
(I0
F2.4
tp18
(dp19
g5
F0.092723363413601
sg6
F0.4914904476869018
sg7
F0.010841182148436856
sss(I100
I140
tp20
(dp21
(I0
F2.4
tp22
(dp23
g5
F0.08973921962904703
sg6
F0.6539903850653422
sg7
F0.006716185097410757
sss(I1000
I-1
tp24
(dp25
(I0
F2.4
tp26
(dp27
g5
F0.13602941176470587
sg6
F0.41139240506329117
sg7
F0.038262910798122066
sss(I50
I70
tp28
(dp29
(I0
F2.4
tp30
(dp31
g5
F0.07814793399457368
sg6
F0.6393952542623661
sg7
F0.006772605966951394
sss(I300
I600
tp32
(dp33
(I0
F2.4
tp34
(dp35
g5
F0.12533280085197018
sg6
F0.5361199614159189
sg7
F0.0195777534954577
sss(I30
I50
tp36
(dp37
(I0
F2.4
tp38
(dp39
g5
F0.09178040193663747
sg6
F0.6071874571097451
sg7
F0.009196918512503167
sss(I140
I200
tp40
(dp41
(I0
F2.4
tp42
(dp43
g5
F0.10299045208342425
sg6
F0.6402316073016397
sg7
F0.00854734138283064
sss.